; Function Attrs: mustprogress uwtable
define noundef zeroext i1 @_ZN10StringList9GetStringEPwm(ptr nocapture noundef nonnull align 8 dereferenceable(184) %0, ptr noundef %1, i64 noundef %2) local_unnamed_addr #2 align 2 {
  %4 = getelementptr inbounds i8, ptr %0, i64 32
  %5 = load i64, ptr %4, align 8
  %6 = getelementptr inbounds i8, ptr %0, i64 8
  %7 = load i64, ptr %6, align 8
  %.not.i = icmp ult i64 %5, %7
  br i1 %.not.i, label %8, label %_ZN10StringList9GetStringEPPw.exit

8:                                                ; preds = %3
  %9 = load ptr, ptr %0, align 8
  %10 = getelementptr inbounds i32, ptr %9, i64 %5
  %11 = tail call i64 @wcslen(ptr noundef nonnull %10) #15
  %12 = add nuw i64 %5, 1
  %13 = add i64 %12, %11
  store i64 %13, ptr %4, align 8
  tail call void @_Z8wcsncpyzPwPKwm(ptr noundef %1, ptr noundef %10, i64 noundef %2)
  br label %_ZN10StringList9GetStringEPPw.exit

_ZN10StringList9GetStringEPPw.exit:               ; preds = %3, %8
  ret i1 %.not.i
}